target datalayout = "e-m:e-p270:32:32-p271:32:32-p272:64:64-i64:64-i128:128-f80:128-n8:16:32:64-S128"
target triple = "x86_64-pc-linux-gnu"

%struct.wmap_foreach_data = type { ptr, i64, ptr }
%struct.weakmap_entry = type { i64, i64 }

; Function Attrs: inlinehint nounwind sspstrong willreturn memory(none) uwtable
define internal zeroext i1 @RB_UNDEF_P(i64 noundef %0) #4 {
  %2 = alloca i64, align 8
  store i64 %0, ptr %2, align 8, !tbaa !7
  %3 = load i64, ptr %2, align 8, !tbaa !7
  %4 = icmp eq i64 %3, 36
  ret i1 %4
}

; Function Attrs: nounwind sspstrong uwtable
define internal zeroext i1 @wmap_live_p(i64 noundef %0) #0 {
  %2 = alloca i64, align 8
  store i64 %0, ptr %2, align 8, !tbaa !7
  %3 = load i64, ptr %2, align 8, !tbaa !7
  %4 = call zeroext i1 @RB_UNDEF_P(i64 noundef %3) #16
  %5 = xor i1 %4, true
  ret i1 %5
}

; Function Attrs: inlinehint nounwind sspstrong uwtable
define internal void @ruby_sized_xfree_inlined(ptr noundef %0, i64 noundef %1) #3 {
  %3 = alloca ptr, align 8
  %4 = alloca i64, align 8
  store ptr %0, ptr %3, align 8, !tbaa !33
  store i64 %1, ptr %4, align 8, !tbaa !7
  %5 = load ptr, ptr %3, align 8, !tbaa !33
  call void @ruby_xfree(ptr noundef %5)
  ret void
}

; Function Attrs: nounwind sspstrong uwtable
define internal i32 @wmap_foreach_i(i64 noundef %0, i64 noundef %1, i64 noundef %2) #0 {
  %4 = alloca i32, align 4
  %5 = alloca i64, align 8
  %6 = alloca i64, align 8
  %7 = alloca i64, align 8
  %8 = alloca ptr, align 8
  %9 = alloca ptr, align 8
  %10 = alloca i64, align 8
  %11 = alloca i64, align 8
  %12 = alloca i32, align 4
  %13 = alloca ptr, align 8
  %14 = alloca ptr, align 8
  %15 = alloca ptr, align 8
  %16 = alloca ptr, align 8
  %17 = alloca i32, align 4
  store i64 %0, ptr %5, align 8, !tbaa !7
  store i64 %1, ptr %6, align 8, !tbaa !7
  store i64 %2, ptr %7, align 8, !tbaa !7
  call void @llvm.lifetime.start.p0(i64 8, ptr %8) #15
  %18 = load i64, ptr %7, align 8, !tbaa !7
  %19 = inttoptr i64 %18 to ptr
  store ptr %19, ptr %8, align 8, !tbaa !41
  %20 = load ptr, ptr %8, align 8, !tbaa !41
  %21 = getelementptr inbounds nuw %struct.wmap_foreach_data, ptr %20, i32 0, i32 2
  %22 = load ptr, ptr %21, align 8, !tbaa !40
  %23 = icmp ne ptr %22, null
  br i1 %23, label %24, label %30

24:                                               ; preds = %3
  %25 = load ptr, ptr %8, align 8, !tbaa !41
  %26 = getelementptr inbounds nuw %struct.wmap_foreach_data, ptr %25, i32 0, i32 2
  %27 = load ptr, ptr %26, align 8, !tbaa !40
  call void @ruby_sized_xfree_inlined(ptr noundef %27, i64 noundef 16)
  %28 = load ptr, ptr %8, align 8, !tbaa !41
  %29 = getelementptr inbounds nuw %struct.wmap_foreach_data, ptr %28, i32 0, i32 2
  store ptr null, ptr %29, align 8, !tbaa !40
  br label %30

30:                                               ; preds = %24, %3
  call void @llvm.lifetime.start.p0(i64 8, ptr %9) #15
  %31 = load i64, ptr %5, align 8, !tbaa !7
  %32 = inttoptr i64 %31 to ptr
  store ptr %32, ptr %9, align 8, !tbaa !17
  %33 = load ptr, ptr %9, align 8, !tbaa !17
  %34 = getelementptr inbounds nuw %struct.weakmap_entry, ptr %33, i32 0, i32 0
  %35 = load i64, ptr %34, align 8, !tbaa !43
  %36 = call zeroext i1 @wmap_live_p(i64 noundef %35)
  br i1 %36, label %37, label %64

37:                                               ; preds = %30
  %38 = load ptr, ptr %9, align 8, !tbaa !17
  %39 = getelementptr inbounds nuw %struct.weakmap_entry, ptr %38, i32 0, i32 1
  %40 = load i64, ptr %39, align 8, !tbaa !45
  %41 = call zeroext i1 @wmap_live_p(i64 noundef %40)
  br i1 %41, label %42, label %64

42:                                               ; preds = %37
  call void @llvm.lifetime.start.p0(i64 8, ptr %10) #15
  %43 = load ptr, ptr %9, align 8, !tbaa !17
  %44 = getelementptr inbounds nuw %struct.weakmap_entry, ptr %43, i32 0, i32 0
  %45 = load i64, ptr %44, align 8, !tbaa !43
  store i64 %45, ptr %10, align 8, !tbaa !7
  call void @llvm.lifetime.start.p0(i64 8, ptr %11) #15
  %46 = load ptr, ptr %9, align 8, !tbaa !17
  %47 = getelementptr inbounds nuw %struct.weakmap_entry, ptr %46, i32 0, i32 1
  %48 = load i64, ptr %47, align 8, !tbaa !45
  store i64 %48, ptr %11, align 8, !tbaa !7
  call void @llvm.lifetime.start.p0(i64 4, ptr %12) #15
  %49 = load ptr, ptr %8, align 8, !tbaa !41
  %50 = getelementptr inbounds nuw %struct.wmap_foreach_data, ptr %49, i32 0, i32 0
  %51 = load ptr, ptr %50, align 8, !tbaa !37
  %52 = load ptr, ptr %9, align 8, !tbaa !17
  %53 = load ptr, ptr %8, align 8, !tbaa !41
  %54 = getelementptr inbounds nuw %struct.wmap_foreach_data, ptr %53, i32 0, i32 1
  %55 = load i64, ptr %54, align 8, !tbaa !39
  %56 = call i32 %51(ptr noundef %52, i64 noundef %55)
  store i32 %56, ptr %12, align 4, !tbaa !46
  call void @llvm.lifetime.start.p0(i64 8, ptr %13) #15
  store ptr %10, ptr %13, align 8, !tbaa !48
  call void asm sideeffect "", "*m,~{dirflag},~{fpsr},~{flags}"(ptr elementtype(ptr) %13) #15, !srcloc !50
  %57 = load ptr, ptr %13, align 8, !tbaa !48
  store ptr %57, ptr %14, align 8, !tbaa !48
  call void @llvm.lifetime.end.p0(i64 8, ptr %13) #15
  %58 = load ptr, ptr %14, align 8, !tbaa !48
  %59 = load volatile i64, ptr %58, align 8, !tbaa !7
  call void @llvm.lifetime.start.p0(i64 8, ptr %15) #15
  store ptr %11, ptr %15, align 8, !tbaa !48
  call void asm sideeffect "", "*m,~{dirflag},~{fpsr},~{flags}"(ptr elementtype(ptr) %15) #15, !srcloc !51
  %60 = load ptr, ptr %15, align 8, !tbaa !48
  store ptr %60, ptr %16, align 8, !tbaa !48
  call void @llvm.lifetime.end.p0(i64 8, ptr %15) #15
  %61 = load ptr, ptr %16, align 8, !tbaa !48
  %62 = load volatile i64, ptr %61, align 8, !tbaa !7
  %63 = load i32, ptr %12, align 4, !tbaa !46
  store i32 %63, ptr %4, align 4
  store i32 1, ptr %17, align 4
  call void @llvm.lifetime.end.p0(i64 4, ptr %12) #15
  call void @llvm.lifetime.end.p0(i64 8, ptr %11) #15
  call void @llvm.lifetime.end.p0(i64 8, ptr %10) #15
  br label %68

64:                                               ; preds = %37, %30
  %65 = load ptr, ptr %9, align 8, !tbaa !17
  %66 = load ptr, ptr %8, align 8, !tbaa !41
  %67 = getelementptr inbounds nuw %struct.wmap_foreach_data, ptr %66, i32 0, i32 2
  store ptr %65, ptr %67, align 8, !tbaa !40
  store i32 2, ptr %4, align 4
  store i32 1, ptr %17, align 4
  br label %68

68:                                               ; preds = %64, %42
  call void @llvm.lifetime.end.p0(i64 8, ptr %9) #15
  call void @llvm.lifetime.end.p0(i64 8, ptr %8) #15
  %69 = load i32, ptr %4, align 4
  ret i32 %69
}