; Function Attrs: nounwind sspstrong uwtable
define internal i32 @wmap_foreach_i(i64 noundef %0, i64 %1, i64 noundef %2) #0 {
  %4 = alloca i64, align 8
  %5 = alloca i64, align 8
  %6 = alloca ptr, align 8
  %7 = alloca ptr, align 8
  %8 = inttoptr i64 %2 to ptr
  %9 = getelementptr inbounds nuw i8, ptr %8, i64 16
  %10 = load ptr, ptr %9, align 8, !tbaa !24
  %.not = icmp eq ptr %10, null
  br i1 %.not, label %12, label %11

11:                                               ; preds = %3
  tail call void @ruby_xfree(ptr noundef nonnull %10) #10
  store ptr null, ptr %9, align 8, !tbaa !24
  br label %12

12:                                               ; preds = %11, %3
  %13 = inttoptr i64 %0 to ptr
  %14 = load i64, ptr %13, align 8, !tbaa !38
  %.not18 = icmp eq i64 %14, 36
  br i1 %.not18, label %27, label %15

15:                                               ; preds = %12
  %16 = getelementptr inbounds nuw i8, ptr %13, i64 8
  %17 = load i64, ptr %16, align 8, !tbaa !40
  %.not19 = icmp eq i64 %17, 36
  br i1 %.not19, label %27, label %18

18:                                               ; preds = %15
  call void @llvm.lifetime.start.p0(i64 8, ptr nonnull %4) #10
  store i64 %14, ptr %4, align 8, !tbaa !7
  call void @llvm.lifetime.start.p0(i64 8, ptr nonnull %5) #10
  store i64 %17, ptr %5, align 8, !tbaa !7
  %19 = load ptr, ptr %8, align 8, !tbaa !20
  %20 = getelementptr inbounds nuw i8, ptr %8, i64 8
  %21 = load i64, ptr %20, align 8, !tbaa !23
  %22 = tail call i32 %19(ptr noundef nonnull %13, i64 noundef %21) #10
  call void @llvm.lifetime.start.p0(i64 8, ptr nonnull %6) #10
  store ptr %4, ptr %6, align 8, !tbaa !41
  call void asm sideeffect "", "*m,~{dirflag},~{fpsr},~{flags}"(ptr nonnull elementtype(ptr) %6) #10, !srcloc !43
  %23 = load ptr, ptr %6, align 8, !tbaa !41
  call void @llvm.lifetime.end.p0(i64 8, ptr nonnull %6) #10
  %24 = load volatile i64, ptr %23, align 8, !tbaa !7
  call void @llvm.lifetime.start.p0(i64 8, ptr nonnull %7) #10
  store ptr %5, ptr %7, align 8, !tbaa !41
  call void asm sideeffect "", "*m,~{dirflag},~{fpsr},~{flags}"(ptr nonnull elementtype(ptr) %7) #10, !srcloc !44
  %25 = load ptr, ptr %7, align 8, !tbaa !41
  call void @llvm.lifetime.end.p0(i64 8, ptr nonnull %7) #10
  %26 = load volatile i64, ptr %25, align 8, !tbaa !7
  call void @llvm.lifetime.end.p0(i64 8, ptr nonnull %5) #10
  call void @llvm.lifetime.end.p0(i64 8, ptr nonnull %4) #10
  br label %28

27:                                               ; preds = %15, %12
  store ptr %13, ptr %9, align 8, !tbaa !24
  br label %28

28:                                               ; preds = %27, %18
  %.0 = phi i32 [ %22, %18 ], [ 2, %27 ]
  ret i32 %.0
}